; Function Attrs: mustprogress nounwind willreturn uwtable
define internal void @cls_method_pdtor(ptr noundef readonly captures(none) %0) #9 {
  %2 = load ptr, ptr %0, align 8, !tbaa !4
  %3 = getelementptr inbounds nuw i8, ptr %2, i64 8
  %4 = load ptr, ptr %3, align 8, !tbaa !4
  %.not = icmp eq ptr %4, null
  br i1 %.not, label %zend_string_release_ex.exit, label %5

5:                                                ; preds = %1
  %6 = getelementptr inbounds nuw i8, ptr %4, i64 4
  %7 = load i32, ptr %6, align 4, !tbaa !4
  %8 = and i32 %7, 64
  %.not.i = icmp eq i32 %8, 0
  br i1 %.not.i, label %9, label %zend_string_release_ex.exit

9:                                                ; preds = %5
  %10 = load i32, ptr %4, align 4, !tbaa !7
  %11 = icmp ne i32 %10, 0
  tail call void @llvm.assume(i1 %11)
  %12 = add i32 %10, -1
  store i32 %12, ptr %4, align 4, !tbaa !7
  %13 = icmp eq i32 %12, 0
  br i1 %13, label %14, label %zend_string_release_ex.exit

14:                                               ; preds = %9
  tail call void @free(ptr noundef nonnull %4) #13
  br label %zend_string_release_ex.exit

zend_string_release_ex.exit:                      ; preds = %14, %9, %5, %1
  %15 = getelementptr inbounds nuw i8, ptr %2, i64 56
  %16 = load ptr, ptr %15, align 8, !tbaa !4
  %.not7 = icmp eq ptr %16, null
  br i1 %.not7, label %18, label %17

17:                                               ; preds = %zend_string_release_ex.exit
  tail call void @free(ptr noundef nonnull %16) #13
  br label %18

18:                                               ; preds = %17, %zend_string_release_ex.exit
  tail call void @free(ptr noundef nonnull %2) #13
  ret void
}